
memtest-flash.elf:     file format elf32-littleriscv


Disassembly of section .text:

30000000 <_start>:
30000000:	00000413          	li	s0,0
30000004:	50010117          	auipc	sp,0x50010
30000008:	ffc10113          	addi	sp,sp,-4 # 80010000 <_end>
3000000c:	178000ef          	jal	30000184 <_trm_init>

30000010 <main>:
30000010:	ff010113          	addi	sp,sp,-16
30000014:	00812423          	sw	s0,8(sp)
30000018:	00112623          	sw	ra,12(sp)
3000001c:	00000417          	auipc	s0,0x0
30000020:	5e440413          	addi	s0,s0,1508 # 30000600 <_etext>
30000024:	07300513          	li	a0,115
30000028:	00140413          	addi	s0,s0,1
3000002c:	190000ef          	jal	300001bc <putch>
30000030:	00044503          	lbu	a0,0(s0)
30000034:	fe051ae3          	bnez	a0,30000028 <main+0x18>
30000038:	80200737          	lui	a4,0x80200
3000003c:	00000793          	li	a5,0
30000040:	000016b7          	lui	a3,0x1
30000044:	00f71023          	sh	a5,0(a4) # 80200000 <_end+0x1f0000>
30000048:	00178793          	addi	a5,a5,1
3000004c:	00270713          	addi	a4,a4,2
30000050:	fed79ae3          	bne	a5,a3,30000044 <main+0x34>
30000054:	00000417          	auipc	s0,0x0
30000058:	5bc40413          	addi	s0,s0,1468 # 30000610 <_etext+0x10>
3000005c:	06d00513          	li	a0,109
30000060:	00140413          	addi	s0,s0,1
30000064:	158000ef          	jal	300001bc <putch>
30000068:	00044503          	lbu	a0,0(s0)
3000006c:	fe051ae3          	bnez	a0,30000060 <main+0x50>
30000070:	80200737          	lui	a4,0x80200
30000074:	00000793          	li	a5,0
30000078:	00001637          	lui	a2,0x1
3000007c:	00075683          	lhu	a3,0(a4) # 80200000 <_end+0x1f0000>
30000080:	0cf69863          	bne	a3,a5,30000150 <main+0x140>
30000084:	00178793          	addi	a5,a5,1
30000088:	00270713          	addi	a4,a4,2
3000008c:	fec798e3          	bne	a5,a2,3000007c <main+0x6c>
30000090:	00000417          	auipc	s0,0x0
30000094:	59440413          	addi	s0,s0,1428 # 30000624 <_etext+0x24>
30000098:	06d00513          	li	a0,109
3000009c:	00140413          	addi	s0,s0,1
300000a0:	11c000ef          	jal	300001bc <putch>
300000a4:	00044503          	lbu	a0,0(s0)
300000a8:	fe051ae3          	bnez	a0,3000009c <main+0x8c>
300000ac:	802007b7          	lui	a5,0x80200
300000b0:	7c0005b7          	lui	a1,0x7c000
300000b4:	80202637          	lui	a2,0x80202
300000b8:	0007d683          	lhu	a3,0(a5) # 80200000 <_end+0x1f0000>
300000bc:	00f58733          	add	a4,a1,a5
300000c0:	00278793          	addi	a5,a5,2
300000c4:	00d71023          	sh	a3,0(a4)
300000c8:	fec798e3          	bne	a5,a2,300000b8 <main+0xa8>
300000cc:	00000417          	auipc	s0,0x0
300000d0:	56c40413          	addi	s0,s0,1388 # 30000638 <_etext+0x38>
300000d4:	07300513          	li	a0,115
300000d8:	00140413          	addi	s0,s0,1
300000dc:	0e0000ef          	jal	300001bc <putch>
300000e0:	00044503          	lbu	a0,0(s0)
300000e4:	fe051ae3          	bnez	a0,300000d8 <main+0xc8>
300000e8:	fc200737          	lui	a4,0xfc200
300000ec:	00000793          	li	a5,0
300000f0:	00001637          	lui	a2,0x1
300000f4:	00075683          	lhu	a3,0(a4) # fc200000 <_end+0x7c1f0000>
300000f8:	06f69c63          	bne	a3,a5,30000170 <main+0x160>
300000fc:	00178793          	addi	a5,a5,1
30000100:	00270713          	addi	a4,a4,2
30000104:	fec798e3          	bne	a5,a2,300000f4 <main+0xe4>
30000108:	00000417          	auipc	s0,0x0
3000010c:	54840413          	addi	s0,s0,1352 # 30000650 <_etext+0x50>
30000110:	07300513          	li	a0,115
30000114:	00140413          	addi	s0,s0,1
30000118:	0a4000ef          	jal	300001bc <putch>
3000011c:	00044503          	lbu	a0,0(s0)
30000120:	fe051ae3          	bnez	a0,30000114 <main+0x104>
30000124:	00000417          	auipc	s0,0x0
30000128:	54440413          	addi	s0,s0,1348 # 30000668 <_etext+0x68>
3000012c:	06100513          	li	a0,97
30000130:	00140413          	addi	s0,s0,1
30000134:	088000ef          	jal	300001bc <putch>
30000138:	00044503          	lbu	a0,0(s0)
3000013c:	fe051ae3          	bnez	a0,30000130 <main+0x120>
30000140:	00c12083          	lw	ra,12(sp)
30000144:	00812403          	lw	s0,8(sp)
30000148:	01010113          	addi	sp,sp,16
3000014c:	00008067          	ret
30000150:	01900613          	li	a2,25
30000154:	00000597          	auipc	a1,0x0
30000158:	52858593          	addi	a1,a1,1320 # 3000067c <_etext+0x7c>
3000015c:	00000517          	auipc	a0,0x0
30000160:	57050513          	addi	a0,a0,1392 # 300006cc <_etext+0xcc>
30000164:	1a0000ef          	jal	30000304 <printf>
30000168:	00100513          	li	a0,1
3000016c:	00c000ef          	jal	30000178 <halt>
30000170:	02500613          	li	a2,37
30000174:	fe1ff06f          	j	30000154 <main+0x144>

30000178 <halt>:
30000178:	00050513          	mv	a0,a0
3000017c:	00100073          	ebreak
30000180:	0000006f          	j	30000180 <halt+0x8>

30000184 <_trm_init>:
30000184:	017d85b7          	lui	a1,0x17d8
30000188:	0001c537          	lui	a0,0x1c
3000018c:	ff010113          	addi	sp,sp,-16
30000190:	84058593          	addi	a1,a1,-1984 # 17d7840 <_entry_offset+0x17d7840>
30000194:	20050513          	addi	a0,a0,512 # 1c200 <_entry_offset+0x1c200>
30000198:	00112623          	sw	ra,12(sp)
3000019c:	038000ef          	jal	300001d4 <uart_set_baud>
300001a0:	054000ef          	jal	300001f4 <uart_tr_init>
300001a4:	00000517          	auipc	a0,0x0
300001a8:	5bc50513          	addi	a0,a0,1468 # 30000760 <mainargs>
300001ac:	e65ff0ef          	jal	30000010 <main>
300001b0:	00050513          	mv	a0,a0
300001b4:	00100073          	ebreak
300001b8:	0000006f          	j	300001b8 <_trm_init+0x34>

300001bc <putch>:
300001bc:	10000737          	lui	a4,0x10000
300001c0:	00574783          	lbu	a5,5(a4) # 10000005 <_entry_offset+0x10000005>
300001c4:	0207f793          	andi	a5,a5,32
300001c8:	fe078ce3          	beqz	a5,300001c0 <putch+0x4>
300001cc:	00a70023          	sb	a0,0(a4)
300001d0:	00008067          	ret

300001d4 <uart_set_baud>:
300001d4:	00451513          	slli	a0,a0,0x4
300001d8:	02a5c5b3          	div	a1,a1,a0
300001dc:	100007b7          	lui	a5,0x10000
300001e0:	f8300713          	li	a4,-125
300001e4:	00e781a3          	sb	a4,3(a5) # 10000003 <_entry_offset+0x10000003>
300001e8:	0ff5f593          	zext.b	a1,a1
300001ec:	00b78023          	sb	a1,0(a5)
300001f0:	00008067          	ret

300001f4 <uart_tr_init>:
300001f4:	100007b7          	lui	a5,0x10000
300001f8:	00300713          	li	a4,3
300001fc:	00e781a3          	sb	a4,3(a5) # 10000003 <_entry_offset+0x10000003>
30000200:	00008067          	ret

30000204 <mitoa>:
30000204:	00000797          	auipc	a5,0x0
30000208:	4e478793          	addi	a5,a5,1252 # 300006e8 <_etext+0xe8>
3000020c:	0247c703          	lbu	a4,36(a5)
30000210:	0007a283          	lw	t0,0(a5)
30000214:	0047af83          	lw	t6,4(a5)
30000218:	0087af03          	lw	t5,8(a5)
3000021c:	00c7ae83          	lw	t4,12(a5)
30000220:	0107ae03          	lw	t3,16(a5)
30000224:	0147a303          	lw	t1,20(a5)
30000228:	0187a883          	lw	a7,24(a5)
3000022c:	01c7a803          	lw	a6,28(a5)
30000230:	0207a683          	lw	a3,32(a5)
30000234:	fd010113          	addi	sp,sp,-48
30000238:	02e10623          	sb	a4,44(sp)
3000023c:	00512423          	sw	t0,8(sp)
30000240:	01f12623          	sw	t6,12(sp)
30000244:	01e12823          	sw	t5,16(sp)
30000248:	01d12a23          	sw	t4,20(sp)
3000024c:	01c12c23          	sw	t3,24(sp)
30000250:	00612e23          	sw	t1,28(sp)
30000254:	03112023          	sw	a7,32(sp)
30000258:	03012223          	sw	a6,36(sp)
3000025c:	02d12423          	sw	a3,40(sp)
30000260:	00a00713          	li	a4,10
30000264:	00050793          	mv	a5,a0
30000268:	00058513          	mv	a0,a1
3000026c:	08e60063          	beq	a2,a4,300002ec <mitoa+0xe8>
30000270:	00000693          	li	a3,0
30000274:	02c7f833          	remu	a6,a5,a2
30000278:	00068713          	mv	a4,a3
3000027c:	00168693          	addi	a3,a3,1 # 1001 <_entry_offset+0x1001>
30000280:	00d508b3          	add	a7,a0,a3
30000284:	00078313          	mv	t1,a5
30000288:	03080593          	addi	a1,a6,48
3000028c:	00258833          	add	a6,a1,sp
30000290:	fd884803          	lbu	a6,-40(a6)
30000294:	02c7d7b3          	divu	a5,a5,a2
30000298:	ff088fa3          	sb	a6,-1(a7)
3000029c:	fcc37ce3          	bgeu	t1,a2,30000274 <mitoa+0x70>
300002a0:	00088023          	sb	zero,0(a7)
300002a4:	00054783          	lbu	a5,0(a0)
300002a8:	40175693          	srai	a3,a4,0x1
300002ac:	fd378793          	addi	a5,a5,-45
300002b0:	0017b793          	seqz	a5,a5
300002b4:	02f6c863          	blt	a3,a5,300002e4 <mitoa+0xe0>
300002b8:	00150593          	addi	a1,a0,1
300002bc:	00f507b3          	add	a5,a0,a5
300002c0:	00e50733          	add	a4,a0,a4
300002c4:	00d585b3          	add	a1,a1,a3
300002c8:	00074603          	lbu	a2,0(a4)
300002cc:	0007c683          	lbu	a3,0(a5)
300002d0:	00178793          	addi	a5,a5,1
300002d4:	fff70713          	addi	a4,a4,-1
300002d8:	fec78fa3          	sb	a2,-1(a5)
300002dc:	00d700a3          	sb	a3,1(a4)
300002e0:	feb794e3          	bne	a5,a1,300002c8 <mitoa+0xc4>
300002e4:	03010113          	addi	sp,sp,48
300002e8:	00008067          	ret
300002ec:	f807d2e3          	bgez	a5,30000270 <mitoa+0x6c>
300002f0:	02d00713          	li	a4,45
300002f4:	40f007b3          	neg	a5,a5
300002f8:	00e58023          	sb	a4,0(a1)
300002fc:	00100693          	li	a3,1
30000300:	f75ff06f          	j	30000274 <mitoa+0x70>

30000304 <printf>:
30000304:	fc010113          	addi	sp,sp,-64
30000308:	02410313          	addi	t1,sp,36
3000030c:	02b12223          	sw	a1,36(sp)
30000310:	00030593          	mv	a1,t1
30000314:	00112e23          	sw	ra,28(sp)
30000318:	02c12423          	sw	a2,40(sp)
3000031c:	02d12623          	sw	a3,44(sp)
30000320:	02e12823          	sw	a4,48(sp)
30000324:	02f12a23          	sw	a5,52(sp)
30000328:	03012c23          	sw	a6,56(sp)
3000032c:	03112e23          	sw	a7,60(sp)
30000330:	00612623          	sw	t1,12(sp)
30000334:	010000ef          	jal	30000344 <vprintf>
30000338:	01c12083          	lw	ra,28(sp)
3000033c:	04010113          	addi	sp,sp,64
30000340:	00008067          	ret

30000344 <vprintf>:
30000344:	f9010113          	addi	sp,sp,-112
30000348:	06812423          	sw	s0,104(sp)
3000034c:	06112623          	sw	ra,108(sp)
30000350:	06912223          	sw	s1,100(sp)
30000354:	07212023          	sw	s2,96(sp)
30000358:	05312e23          	sw	s3,92(sp)
3000035c:	05412c23          	sw	s4,88(sp)
30000360:	05512a23          	sw	s5,84(sp)
30000364:	05612823          	sw	s6,80(sp)
30000368:	05712623          	sw	s7,76(sp)
3000036c:	05812423          	sw	s8,72(sp)
30000370:	00050413          	mv	s0,a0
30000374:	00054503          	lbu	a0,0(a0)
30000378:	22050c63          	beqz	a0,300005b0 <vprintf+0x26c>
3000037c:	00058c13          	mv	s8,a1
30000380:	00000493          	li	s1,0
30000384:	02500993          	li	s3,37
30000388:	07300913          	li	s2,115
3000038c:	07800a93          	li	s5,120
30000390:	06400a13          	li	s4,100
30000394:	06c00b13          	li	s6,108
30000398:	05350663          	beq	a0,s3,300003e4 <vprintf+0xa0>
3000039c:	e21ff0ef          	jal	300001bc <putch>
300003a0:	00148493          	addi	s1,s1,1
300003a4:	00140413          	addi	s0,s0,1
300003a8:	00044503          	lbu	a0,0(s0)
300003ac:	fe0516e3          	bnez	a0,30000398 <vprintf+0x54>
300003b0:	06c12083          	lw	ra,108(sp)
300003b4:	06812403          	lw	s0,104(sp)
300003b8:	06012903          	lw	s2,96(sp)
300003bc:	05c12983          	lw	s3,92(sp)
300003c0:	05812a03          	lw	s4,88(sp)
300003c4:	05412a83          	lw	s5,84(sp)
300003c8:	05012b03          	lw	s6,80(sp)
300003cc:	04c12b83          	lw	s7,76(sp)
300003d0:	04812c03          	lw	s8,72(sp)
300003d4:	00048513          	mv	a0,s1
300003d8:	06412483          	lw	s1,100(sp)
300003dc:	07010113          	addi	sp,sp,112
300003e0:	00008067          	ret
300003e4:	00144783          	lbu	a5,1(s0)
300003e8:	00012023          	sw	zero,0(sp)
300003ec:	00012223          	sw	zero,4(sp)
300003f0:	00012423          	sw	zero,8(sp)
300003f4:	00012623          	sw	zero,12(sp)
300003f8:	00012823          	sw	zero,16(sp)
300003fc:	00012a23          	sw	zero,20(sp)
30000400:	00012c23          	sw	zero,24(sp)
30000404:	00012e23          	sw	zero,28(sp)
30000408:	02012023          	sw	zero,32(sp)
3000040c:	02012223          	sw	zero,36(sp)
30000410:	02012423          	sw	zero,40(sp)
30000414:	02012623          	sw	zero,44(sp)
30000418:	02012823          	sw	zero,48(sp)
3000041c:	02012a23          	sw	zero,52(sp)
30000420:	02012c23          	sw	zero,56(sp)
30000424:	02012e23          	sw	zero,60(sp)
30000428:	00240b93          	addi	s7,s0,2
3000042c:	13278663          	beq	a5,s2,30000558 <vprintf+0x214>
30000430:	06f96e63          	bltu	s2,a5,300004ac <vprintf+0x168>
30000434:	0d478e63          	beq	a5,s4,30000510 <vprintf+0x1cc>
30000438:	07679663          	bne	a5,s6,300004a4 <vprintf+0x160>
3000043c:	00244783          	lbu	a5,2(s0)
30000440:	000c2503          	lw	a0,0(s8)
30000444:	004c0c13          	addi	s8,s8,4
30000448:	15478463          	beq	a5,s4,30000590 <vprintf+0x24c>
3000044c:	17579663          	bne	a5,s5,300005b8 <vprintf+0x274>
30000450:	01000613          	li	a2,16
30000454:	00010593          	mv	a1,sp
30000458:	dadff0ef          	jal	30000204 <mitoa>
3000045c:	00010513          	mv	a0,sp
30000460:	178000ef          	jal	300005d8 <strlen>
30000464:	00340b93          	addi	s7,s0,3
30000468:	00a484b3          	add	s1,s1,a0
3000046c:	00000417          	auipc	s0,0x0
30000470:	2a440413          	addi	s0,s0,676 # 30000710 <_etext+0x110>
30000474:	03000513          	li	a0,48
30000478:	00140413          	addi	s0,s0,1
3000047c:	d41ff0ef          	jal	300001bc <putch>
30000480:	00044503          	lbu	a0,0(s0)
30000484:	fe051ae3          	bnez	a0,30000478 <vprintf+0x134>
30000488:	00014503          	lbu	a0,0(sp)
3000048c:	00050c63          	beqz	a0,300004a4 <vprintf+0x160>
30000490:	00010413          	mv	s0,sp
30000494:	00140413          	addi	s0,s0,1
30000498:	d25ff0ef          	jal	300001bc <putch>
3000049c:	00044503          	lbu	a0,0(s0)
300004a0:	fe051ae3          	bnez	a0,30000494 <vprintf+0x150>
300004a4:	000b8413          	mv	s0,s7
300004a8:	f01ff06f          	j	300003a8 <vprintf+0x64>
300004ac:	ff579ce3          	bne	a5,s5,300004a4 <vprintf+0x160>
300004b0:	000c2503          	lw	a0,0(s8)
300004b4:	01000613          	li	a2,16
300004b8:	00010593          	mv	a1,sp
300004bc:	d49ff0ef          	jal	30000204 <mitoa>
300004c0:	00010513          	mv	a0,sp
300004c4:	114000ef          	jal	300005d8 <strlen>
300004c8:	00a484b3          	add	s1,s1,a0
300004cc:	004c0c13          	addi	s8,s8,4
300004d0:	00000417          	auipc	s0,0x0
300004d4:	24040413          	addi	s0,s0,576 # 30000710 <_etext+0x110>
300004d8:	03000513          	li	a0,48
300004dc:	00140413          	addi	s0,s0,1
300004e0:	cddff0ef          	jal	300001bc <putch>
300004e4:	00044503          	lbu	a0,0(s0)
300004e8:	fe051ae3          	bnez	a0,300004dc <vprintf+0x198>
300004ec:	00014503          	lbu	a0,0(sp)
300004f0:	fa050ae3          	beqz	a0,300004a4 <vprintf+0x160>
300004f4:	00010413          	mv	s0,sp
300004f8:	00140413          	addi	s0,s0,1
300004fc:	cc1ff0ef          	jal	300001bc <putch>
30000500:	00044503          	lbu	a0,0(s0)
30000504:	fe051ae3          	bnez	a0,300004f8 <vprintf+0x1b4>
30000508:	000b8413          	mv	s0,s7
3000050c:	e9dff06f          	j	300003a8 <vprintf+0x64>
30000510:	000c2503          	lw	a0,0(s8)
30000514:	00a00613          	li	a2,10
30000518:	00010593          	mv	a1,sp
3000051c:	ce9ff0ef          	jal	30000204 <mitoa>
30000520:	00010513          	mv	a0,sp
30000524:	0b4000ef          	jal	300005d8 <strlen>
30000528:	00050793          	mv	a5,a0
3000052c:	00014503          	lbu	a0,0(sp)
30000530:	004c0c13          	addi	s8,s8,4
30000534:	00f484b3          	add	s1,s1,a5
30000538:	f60506e3          	beqz	a0,300004a4 <vprintf+0x160>
3000053c:	00010413          	mv	s0,sp
30000540:	00140413          	addi	s0,s0,1
30000544:	c79ff0ef          	jal	300001bc <putch>
30000548:	00044503          	lbu	a0,0(s0)
3000054c:	fe051ae3          	bnez	a0,30000540 <vprintf+0x1fc>
30000550:	000b8413          	mv	s0,s7
30000554:	e55ff06f          	j	300003a8 <vprintf+0x64>
30000558:	000c2403          	lw	s0,0(s8)
3000055c:	004c0c13          	addi	s8,s8,4
30000560:	00040513          	mv	a0,s0
30000564:	074000ef          	jal	300005d8 <strlen>
30000568:	00050793          	mv	a5,a0
3000056c:	00044503          	lbu	a0,0(s0)
30000570:	00f484b3          	add	s1,s1,a5
30000574:	f20508e3          	beqz	a0,300004a4 <vprintf+0x160>
30000578:	00140413          	addi	s0,s0,1
3000057c:	c41ff0ef          	jal	300001bc <putch>
30000580:	00044503          	lbu	a0,0(s0)
30000584:	fe051ae3          	bnez	a0,30000578 <vprintf+0x234>
30000588:	000b8413          	mv	s0,s7
3000058c:	e1dff06f          	j	300003a8 <vprintf+0x64>
30000590:	00a00613          	li	a2,10
30000594:	00010593          	mv	a1,sp
30000598:	c6dff0ef          	jal	30000204 <mitoa>
3000059c:	00010513          	mv	a0,sp
300005a0:	038000ef          	jal	300005d8 <strlen>
300005a4:	00340b93          	addi	s7,s0,3
300005a8:	00a484b3          	add	s1,s1,a0
300005ac:	eddff06f          	j	30000488 <vprintf+0x144>
300005b0:	00000493          	li	s1,0
300005b4:	dfdff06f          	j	300003b0 <vprintf+0x6c>
300005b8:	06500613          	li	a2,101
300005bc:	00000597          	auipc	a1,0x0
300005c0:	15858593          	addi	a1,a1,344 # 30000714 <_etext+0x114>
300005c4:	00000517          	auipc	a0,0x0
300005c8:	10850513          	addi	a0,a0,264 # 300006cc <_etext+0xcc>
300005cc:	d39ff0ef          	jal	30000304 <printf>
300005d0:	00100513          	li	a0,1
300005d4:	ba5ff0ef          	jal	30000178 <halt>

300005d8 <strlen>:
300005d8:	00054783          	lbu	a5,0(a0)
300005dc:	00050713          	mv	a4,a0
300005e0:	00000513          	li	a0,0
300005e4:	00078c63          	beqz	a5,300005fc <strlen+0x24>
300005e8:	00150513          	addi	a0,a0,1
300005ec:	00a707b3          	add	a5,a4,a0
300005f0:	0007c783          	lbu	a5,0(a5)
300005f4:	fe079ae3          	bnez	a5,300005e8 <strlen+0x10>
300005f8:	00008067          	ret
300005fc:	00008067          	ret
